target datalayout = "e-m:e-p270:32:32-p271:32:32-p272:64:64-i64:64-i128:128-f80:128-n8:16:32:64-S128"
target triple = "x86_64-pc-linux-gnu"

%struct.Sbd_Sto_t_ = type { i32, i32, i32, i32, i32, ptr, ptr, ptr, ptr, ptr, ptr, ptr, [3 x [501 x %struct.Sbd_Cut_t_]], [501 x ptr], i32, i32, i32, i32, i32, i32, [4 x double], i64 }
%struct.Sbd_Cut_t_ = type { i64, i32, i32, i32, i32, [10 x i32] }

; Function Attrs: nounwind uwtable
define void @Sbd_StoSaveBestDelayCut(ptr noundef %0, i32 noundef %1, ptr noundef %2) #0 {
  %4 = alloca ptr, align 8
  %5 = alloca i32, align 4
  %6 = alloca ptr, align 8
  %7 = alloca ptr, align 8
  %8 = alloca i32, align 4
  store ptr %0, ptr %4, align 8, !tbaa !3
  store i32 %1, ptr %5, align 4, !tbaa !8
  store ptr %2, ptr %6, align 8, !tbaa !59
  call void @llvm.lifetime.start.p0(i64 8, ptr %7) #12
  %9 = load ptr, ptr %4, align 8, !tbaa !3
  %10 = getelementptr inbounds nuw %struct.Sbd_Sto_t_, ptr %9, i32 0, i32 13
  %11 = load ptr, ptr %4, align 8, !tbaa !3
  %12 = getelementptr inbounds nuw %struct.Sbd_Sto_t_, ptr %11, i32 0, i32 16
  %13 = load i32, ptr %12, align 8, !tbaa !79
  %14 = sext i32 %13 to i64
  %15 = getelementptr inbounds [501 x ptr], ptr %10, i64 0, i64 %14
  %16 = load ptr, ptr %15, align 8, !tbaa !26
  store ptr %16, ptr %7, align 8, !tbaa !26
  call void @llvm.lifetime.start.p0(i64 4, ptr %8) #12
  %17 = load ptr, ptr %7, align 8, !tbaa !26
  %18 = getelementptr inbounds nuw %struct.Sbd_Cut_t_, ptr %17, i32 0, i32 4
  %19 = load i32, ptr %18, align 4
  %20 = lshr i32 %19, 28
  %21 = load ptr, ptr %6, align 8, !tbaa !59
  %22 = getelementptr inbounds i32, ptr %21, i64 0
  store i32 %20, ptr %22, align 4, !tbaa !8
  store i32 0, ptr %8, align 4, !tbaa !8
  br label %23

23:                                               ; preds = %42, %3
  %24 = load i32, ptr %8, align 4, !tbaa !8
  %25 = load ptr, ptr %7, align 8, !tbaa !26
  %26 = getelementptr inbounds nuw %struct.Sbd_Cut_t_, ptr %25, i32 0, i32 4
  %27 = load i32, ptr %26, align 4
  %28 = lshr i32 %27, 28
  %29 = icmp slt i32 %24, %28
  br i1 %29, label %30, label %45

30:                                               ; preds = %23
  %31 = load ptr, ptr %7, align 8, !tbaa !26
  %32 = getelementptr inbounds nuw %struct.Sbd_Cut_t_, ptr %31, i32 0, i32 5
  %33 = load i32, ptr %8, align 4, !tbaa !8
  %34 = sext i32 %33 to i64
  %35 = getelementptr inbounds [10 x i32], ptr %32, i64 0, i64 %34
  %36 = load i32, ptr %35, align 4, !tbaa !8
  %37 = load ptr, ptr %6, align 8, !tbaa !59
  %38 = load i32, ptr %8, align 4, !tbaa !8
  %39 = add nsw i32 %38, 1
  %40 = sext i32 %39 to i64
  %41 = getelementptr inbounds i32, ptr %37, i64 %40
  store i32 %36, ptr %41, align 4, !tbaa !8
  br label %42

42:                                               ; preds = %30
  %43 = load i32, ptr %8, align 4, !tbaa !8
  %44 = add nsw i32 %43, 1
  store i32 %44, ptr %8, align 4, !tbaa !8
  br label %23, !llvm.loop !103

45:                                               ; preds = %23
  call void @llvm.lifetime.end.p0(i64 4, ptr %8) #12
  call void @llvm.lifetime.end.p0(i64 8, ptr %7) #12
  ret void
}