; Function Attrs: nofree norecurse nosync nounwind memory(read, argmem: readwrite, inaccessiblemem: none) uwtable
define void @Sbd_StoSaveBestDelayCut(ptr noundef readonly captures(none) %0, i32 noundef %1, ptr noundef writeonly captures(none) initializes((0, 4)) %2) local_unnamed_addr #7 {
  %4 = getelementptr inbounds nuw i8, ptr %0, i64 96272
  %5 = getelementptr inbounds nuw i8, ptr %0, i64 100288
  %6 = load i32, ptr %5, align 8, !tbaa !95
  %7 = sext i32 %6 to i64
  %8 = getelementptr inbounds [501 x ptr], ptr %4, i64 0, i64 %7
  %9 = load ptr, ptr %8, align 8, !tbaa !36
  %10 = getelementptr inbounds nuw i8, ptr %9, i64 20
  %11 = load i32, ptr %10, align 4
  %12 = lshr i32 %11, 28
  store i32 %12, ptr %2, align 4, !tbaa !35
  %13 = load i32, ptr %10, align 4
  %.not = icmp ult i32 %13, 268435456
  br i1 %.not, label %._crit_edge, label %.lr.ph

.lr.ph:                                           ; preds = %3
  %14 = getelementptr inbounds nuw i8, ptr %9, i64 24
  br label %15

15:                                               ; preds = %.lr.ph, %15
  %indvars.iv = phi i64 [ 0, %.lr.ph ], [ %indvars.iv.next, %15 ]
  %16 = getelementptr inbounds nuw [10 x i32], ptr %14, i64 0, i64 %indvars.iv
  %17 = load i32, ptr %16, align 4, !tbaa !35
  %indvars.iv.next = add nuw nsw i64 %indvars.iv, 1
  %18 = getelementptr inbounds nuw i32, ptr %2, i64 %indvars.iv.next
  store i32 %17, ptr %18, align 4, !tbaa !35
  %19 = load i32, ptr %10, align 4
  %20 = lshr i32 %19, 28
  %21 = zext nneg i32 %20 to i64
  %22 = icmp samesign ult i64 %indvars.iv.next, %21
  br i1 %22, label %15, label %._crit_edge, !llvm.loop !132

._crit_edge:                                      ; preds = %15, %3
  ret void
}